; Function Attrs: nounwind sspstrong uwtable
define dso_local ptr @qemu_chr_new(ptr noundef %label, ptr noundef %filename, ptr noundef %context) local_unnamed_addr #0 {
entry:
  %call.i = tail call ptr @qemu_chr_new_noreplay(ptr noundef %label, ptr noundef %filename, i1 noundef zeroext false, ptr noundef %context)
  %tobool1.not.i = icmp eq ptr %call.i, null
  br i1 %tobool1.not.i, label %qemu_chr_new_permit_mux_mon.exit, label %if.then.i

if.then.i:                                        ; preds = %entry
  %0 = load i32, ptr @replay_mode, align 4
  %cmp.not.i = icmp eq i32 %0, 0
  %features.i6.phi.trans.insert.i = getelementptr inbounds nuw i8, ptr %call.i, i64 144
  %.pre.i = load i64, ptr %features.i6.phi.trans.insert.i, align 8
  br i1 %cmp.not.i, label %if.end.i, label %if.end.thread.i

if.end.thread.i:                                  ; preds = %if.then.i
  %or.i.i.i = or i64 %.pre.i, 4
  store i64 %or.i.i.i, ptr %features.i6.phi.trans.insert.i, align 8
  br label %land.lhs.true.i

if.end.i:                                         ; preds = %if.then.i
  %1 = and i64 %.pre.i, 4
  %2 = icmp eq i64 %1, 0
  br i1 %2, label %if.end7.i, label %land.lhs.true.i

land.lhs.true.i:                                  ; preds = %if.end.i, %if.end.thread.i
  %call.i.i = tail call ptr @object_get_class(ptr noundef nonnull %call.i) #13
  %call1.i.i = tail call ptr @object_class_dynamic_cast_assert(ptr noundef %call.i.i, ptr noundef nonnull @.str.4, ptr noundef nonnull @.str.104, i32 noundef 231, ptr noundef nonnull @__func__.CHARDEV_GET_CLASS) #13
  %chr_ioctl.i = getelementptr inbounds nuw i8, ptr %call1.i.i, i64 152
  %3 = load ptr, ptr %chr_ioctl.i, align 8
  %tobool5.not.i = icmp eq ptr %3, null
  br i1 %tobool5.not.i, label %if.end7.i, label %if.then6.i

if.then6.i:                                       ; preds = %land.lhs.true.i
  tail call void (ptr, ...) @error_report(ptr noundef nonnull @.str.115) #13
  br label %if.end7.i

if.end7.i:                                        ; preds = %if.then6.i, %land.lhs.true.i, %if.end.i
  tail call void @replay_register_char_driver(ptr noundef nonnull %call.i) #13
  br label %qemu_chr_new_permit_mux_mon.exit

qemu_chr_new_permit_mux_mon.exit:                 ; preds = %entry, %if.end7.i
  ret ptr %call.i
}